target datalayout = "e-m:e-p270:32:32-p271:32:32-p272:64:64-i64:64-i128:128-f80:128-n8:16:32:64-S128"
target triple = "x86_64-pc-linux-gnu"

; Function Attrs: mustprogress nounwind uwtable
define internal noundef i64 @_ZL17_trailing_zeros64m(i64 noundef %0) #4 {
  %2 = alloca i64, align 8
  %3 = alloca i64, align 8
  store i64 %0, ptr %2, align 8, !tbaa !7
  call void @llvm.lifetime.start.p0(i64 8, ptr %3) #3
  store i64 0, ptr %3, align 8, !tbaa !7
  br label %4

4:                                                ; preds = %14, %1
  %5 = load i64, ptr %2, align 8, !tbaa !7
  %6 = and i64 %5, 1
  %7 = icmp eq i64 0, %6
  br i1 %7, label %8, label %11

8:                                                ; preds = %4
  %9 = load i64, ptr %3, align 8, !tbaa !7
  %10 = icmp ult i64 %9, 64
  br label %11

11:                                               ; preds = %8, %4
  %12 = phi i1 [ false, %4 ], [ %10, %8 ]
  br i1 %12, label %13, label %19

13:                                               ; preds = %11
  br label %14

14:                                               ; preds = %13
  %15 = load i64, ptr %3, align 8, !tbaa !7
  %16 = add i64 %15, 1
  store i64 %16, ptr %3, align 8, !tbaa !7
  %17 = load i64, ptr %2, align 8, !tbaa !7
  %18 = lshr i64 %17, 1
  store i64 %18, ptr %2, align 8, !tbaa !7
  br label %4, !llvm.loop !9

19:                                               ; preds = %11
  %20 = load i64, ptr %3, align 8, !tbaa !7
  call void @llvm.lifetime.end.p0(i64 8, ptr %3) #3
  ret i64 %20
}

; Function Attrs: mustprogress uwtable
define hidden noundef i32 @_Z14trailing_zerosm(i64 noundef %0) #6 {
  %2 = alloca i64, align 8
  store i64 %0, ptr %2, align 8, !tbaa !7
  %3 = load i64, ptr %2, align 8, !tbaa !7
  %4 = call noundef i64 @_ZL17_trailing_zeros64m(i64 noundef %3)
  %5 = trunc i64 %4 to i32
  ret i32 %5
}