; Function Attrs: mustprogress nofree norecurse nosync nounwind willreturn memory(none) uwtable
define hidden noundef range(i32 0, 65) i32 @_Z14trailing_zerosm(i64 noundef %0) local_unnamed_addr #3 {
  %2 = and i64 %0, 1
  %3 = icmp eq i64 %2, 0
  br i1 %3, label %.lr.ph.i, label %_ZL17_trailing_zeros64m.exit

.lr.ph.i:                                         ; preds = %1, %.lr.ph.i
  %.07.i = phi i64 [ %4, %.lr.ph.i ], [ 0, %1 ]
  %.056.i = phi i64 [ %5, %.lr.ph.i ], [ %0, %1 ]
  %4 = add nuw nsw i64 %.07.i, 1
  %5 = lshr exact i64 %.056.i, 1
  %6 = and i64 %.056.i, 2
  %7 = icmp eq i64 %6, 0
  %8 = icmp samesign ult i64 %.07.i, 63
  %9 = select i1 %7, i1 %8, i1 false
  br i1 %9, label %.lr.ph.i, label %_ZL17_trailing_zeros64m.exit.loopexit, !llvm.loop !3

_ZL17_trailing_zeros64m.exit.loopexit:            ; preds = %.lr.ph.i
  %10 = trunc i64 %4 to i32
  br label %_ZL17_trailing_zeros64m.exit

_ZL17_trailing_zeros64m.exit:                     ; preds = %_ZL17_trailing_zeros64m.exit.loopexit, %1
  %.0.lcssa.i = phi i32 [ 0, %1 ], [ %10, %_ZL17_trailing_zeros64m.exit.loopexit ]
  ret i32 %.0.lcssa.i
}